; ModuleID = '49/1140.c'
source_filename = "49/1140.c"
target datalayout = "e-m:e-p270:32:32-p271:32:32-p272:64:64-i64:64-f80:128-n8:16:32:64-S128"
target triple = "x86_64-pc-linux-gnu"

@.str = private unnamed_addr constant [2 x i8] c"\0A\00", align 1
@.str.1 = private unnamed_addr constant [3 x i8] c"%c\00", align 1

; Function Attrs: noinline nounwind uwtable
define dso_local i32 @main() #0 {
  %1 = alloca i32, align 4
  %2 = alloca [500 x i8], align 16
  %3 = alloca i8, align 1
  %4 = alloca i8, align 1
  %5 = alloca i32, align 4
  %6 = alloca i32, align 4
  %7 = alloca i32, align 4
  %8 = alloca i32, align 4
  %9 = alloca i32, align 4
  %10 = alloca i32, align 4
  store i32 0, i32* %1, align 4
  %11 = getelementptr inbounds [500 x i8], [500 x i8]* %2, i64 0, i64 0
  %12 = call i32 (i8*, ...) bitcast (i32 (...)* @gets to i32 (i8*, ...)*)(i8* %11)
  %13 = getelementptr inbounds [500 x i8], [500 x i8]* %2, i64 0, i64 0
  %14 = call i64 @strlen(i8* %13) #3
  %15 = trunc i64 %14 to i32
  store i32 %15, i32* %10, align 4
  store i32 2, i32* %8, align 4
  br label %16

16:                                               ; preds = %88, %0
  %17 = load i32, i32* %8, align 4
  %18 = load i32, i32* %10, align 4
  %19 = icmp sle i32 %17, %18
  br i1 %19, label %20, label %91

20:                                               ; preds = %16
  store i32 0, i32* %6, align 4
  br label %21

21:                                               ; preds = %84, %20
  %22 = load i32, i32* %6, align 4
  %23 = load i32, i32* %10, align 4
  %24 = load i32, i32* %8, align 4
  %25 = sub nsw i32 %23, %24
  %26 = icmp sle i32 %22, %25
  br i1 %26, label %27, label %87

27:                                               ; preds = %21
  %28 = load i32, i32* %6, align 4
  store i32 %28, i32* %7, align 4
  br label %29

29:                                               ; preds = %57, %27
  %30 = load i32, i32* %7, align 4
  %31 = load i32, i32* %6, align 4
  %32 = load i32, i32* %8, align 4
  %33 = sdiv i32 %32, 2
  %34 = add nsw i32 %31, %33
  %35 = icmp slt i32 %30, %34
  br i1 %35, label %36, label %60

36:                                               ; preds = %29
  store i32 0, i32* %5, align 4
  %37 = load i32, i32* %7, align 4
  %38 = sext i32 %37 to i64
  %39 = getelementptr inbounds [500 x i8], [500 x i8]* %2, i64 0, i64 %38
  %40 = load i8, i8* %39, align 1
  %41 = sext i8 %40 to i32
  %42 = load i32, i32* %8, align 4
  %43 = load i32, i32* %6, align 4
  %44 = add nsw i32 %42, %43
  %45 = sub nsw i32 %44, 1
  %46 = load i32, i32* %7, align 4
  %47 = load i32, i32* %6, align 4
  %48 = sub nsw i32 %46, %47
  %49 = sub nsw i32 %45, %48
  %50 = sext i32 %49 to i64
  %51 = getelementptr inbounds [500 x i8], [500 x i8]* %2, i64 0, i64 %50
  %52 = load i8, i8* %51, align 1
  %53 = sext i8 %52 to i32
  %54 = icmp ne i32 %41, %53
  br i1 %54, label %55, label %56

55:                                               ; preds = %36
  store i32 1, i32* %5, align 4
  br label %60

56:                                               ; preds = %36
  br label %57

57:                                               ; preds = %56
  %58 = load i32, i32* %7, align 4
  %59 = add nsw i32 %58, 1
  store i32 %59, i32* %7, align 4
  br label %29

60:                                               ; preds = %55, %29
  %61 = load i32, i32* %5, align 4
  %62 = icmp eq i32 %61, 0
  br i1 %62, label %63, label %83

63:                                               ; preds = %60
  %64 = call i32 (i8*, ...) @printf(i8* getelementptr inbounds ([2 x i8], [2 x i8]* @.str, i64 0, i64 0))
  %65 = load i32, i32* %6, align 4
  store i32 %65, i32* %9, align 4
  br label %66

66:                                               ; preds = %79, %63
  %67 = load i32, i32* %9, align 4
  %68 = load i32, i32* %6, align 4
  %69 = load i32, i32* %8, align 4
  %70 = add nsw i32 %68, %69
  %71 = icmp slt i32 %67, %70
  br i1 %71, label %72, label %82

72:                                               ; preds = %66
  %73 = load i32, i32* %9, align 4
  %74 = sext i32 %73 to i64
  %75 = getelementptr inbounds [500 x i8], [500 x i8]* %2, i64 0, i64 %74
  %76 = load i8, i8* %75, align 1
  %77 = sext i8 %76 to i32
  %78 = call i32 (i8*, ...) @printf(i8* getelementptr inbounds ([3 x i8], [3 x i8]* @.str.1, i64 0, i64 0), i32 %77)
  br label %79

79:                                               ; preds = %72
  %80 = load i32, i32* %9, align 4
  %81 = add nsw i32 %80, 1
  store i32 %81, i32* %9, align 4
  br label %66

82:                                               ; preds = %66
  br label %83

83:                                               ; preds = %82, %60
  br label %84

84:                                               ; preds = %83
  %85 = load i32, i32* %6, align 4
  %86 = add nsw i32 %85, 1
  store i32 %86, i32* %6, align 4
  br label %21

87:                                               ; preds = %21
  br label %88

88:                                               ; preds = %87
  %89 = load i32, i32* %8, align 4
  %90 = add nsw i32 %89, 1
  store i32 %90, i32* %8, align 4
  br label %16

91:                                               ; preds = %16
  ret i32 0
}

declare dso_local i32 @gets(...) #1

; Function Attrs: nounwind readonly
declare dso_local i64 @strlen(i8*) #2

declare dso_local i32 @printf(i8*, ...) #1


!llvm.module.flags = !{!0}
!llvm.ident = !{!1}

!0 = !{i32 1, !"wchar_size", i32 4}
!1 = !{!"clang version 10.0.0-4ubuntu1 "}
